Certificate:
    Data:
        Version: 3 (0x2)
        Serial Number:
            89:67:9d:e9:24:07:19:51:84:b5:db:10:42:01:91:88
    Signature Algorithm: sha256WithRSAEncryption
        Issuer: C=US, ST=Georgia, L=Chattahoochee Hills, O=Manyfold Farm LLC, OU=Operations, CN=Many Fold Farm Root CA/emailAddress=hostmaster@manyfoldfarm.com
        Validity
            Not Before: May 23 15:20:54 2017 GMT
            Not After : May 22 15:20:54 2022 GMT
        Subject: C=US, ST=Georgia, L=Chattahoochee Hills, O=Manyfold Farm LLC, OU=Creamery, CN=zee.edge.manyfoldfarm.com/emailAddress=hostmaster@manyfoldfarm.com
        Subject Public Key Info:
            Public Key Algorithm: rsaEncryption
                Public-Key: (2048 bit)
                Modulus:
                    00:9f:48:76:13:73:0f:e8:c2:ee:9f:51:ab:65:95:
                    95:64:07:17:39:a1:05:d8:c9:1b:f2:b6:2b:d0:0d:
                    24:ba:41:b7:d9:28:37:d5:12:59:4f:56:42:9d:ab:
                    7a:e5:62:ef:f5:41:39:d7:03:aa:69:f1:56:7c:09:
                    96:5c:48:0e:51:01:0c:dc:f7:11:b7:b5:80:c9:42:
                    4d:cb:74:10:4e:29:05:d6:4e:11:9c:07:df:4b:99:
                    7b:e2:e7:51:c1:1f:16:ad:b9:4f:0e:25:e2:91:e4:
                    8e:c6:8d:aa:d1:b8:0a:2c:37:a6:b9:23:6d:d6:98:
                    cc:e8:84:1d:cc:dd:13:4d:a4:dc:17:88:11:4c:aa:
                    39:a2:c4:5c:94:20:cb:8a:da:84:6d:19:c6:d1:2d:
                    e7:77:33:a5:ab:1b:47:39:e5:09:ec:ae:da:90:a6:
                    76:ce:e2:c4:93:fb:ac:41:6a:de:5c:b6:80:c0:6e:
                    1f:f7:6d:46:a0:28:9b:67:7a:07:b1:be:4b:28:e7:
                    42:8a:b9:ac:9a:b0:99:a1:38:1c:76:2f:ab:f2:e2:
                    d3:af:39:42:db:06:0c:ad:20:65:04:2b:65:04:9a:
                    d8:e2:ce:df:c1:8b:e2:a8:00:8e:2a:00:5b:b9:36:
                    c9:f8:ea:64:ae:ad:fb:e3:84:87:a8:4f:65:52:a7:
                    38:f5
                Exponent: 65537 (0x10001)
        X509v3 extensions:
            X509v3 Basic Constraints: 
                CA:FALSE
            X509v3 Subject Key Identifier: 
                10:62:1D:C4:4C:22:6E:47:20:41:35:FB:4C:09:AE:BC:76:5D:AD:B8
            X509v3 Authority Key Identifier: 
                keyid:3D:27:17:6F:5E:FA:5A:76:29:E3:48:39:1C:0A:A3:95:CE:4A:C8:ED
                DirName:/C=US/ST=Georgia/L=Chattahoochee Hills/O=Manyfold Farm LLC/OU=Operations/CN=Many Fold Farm Root CA/emailAddress=hostmaster@manyfoldfarm.com
                serial:E0:ED:7A:EE:B2:3F:26:7A

            X509v3 Extended Key Usage: 
                TLS Web Server Authentication
            X509v3 Key Usage: 
                Digital Signature, Key Encipherment
    Signature Algorithm: sha256WithRSAEncryption
         bb:35:14:99:a1:fc:0f:39:d8:45:5c:45:12:d6:52:e4:0c:5e:
         d6:e9:c6:e4:49:9d:9d:94:e6:2e:28:49:02:c4:78:07:ec:e0:
         ce:32:10:4a:e6:6f:14:32:18:78:48:64:76:6f:83:07:6b:43:
         bc:b3:db:c0:9b:8b:c5:a3:8f:f6:a4:cc:28:1b:35:f7:44:06:
         c6:cd:d5:79:e4:48:76:61:23:1c:9b:e4:9c:c9:1d:4f:02:a9:
         fd:4b:ea:a8:06:c6:20:cb:ba:13:b4:ab:86:4e:b5:c3:a7:b2:
         9c:fa:0a:e6:1e:b3:3f:a5:f9:c6:d4:ec:c9:5f:fb:95:01:6d:
         55:69:7c:20:42:67:7b:ea:67:6b:62:3c:fa:ee:ef:c9:10:88:
         ad:e0:e5:08:bd:15:45:3e:82:f6:fc:6f:b2:c1:6c:4a:6a:3c:
         1e:f9:bf:e0:4f:aa:5a:5a:a2:2f:70:11:1f:71:76:71:73:07:
         2a:b3:07:5c:1c:03:d6:75:e1:33:94:a0:50:50:de:c9:ec:dc:
         81:dc:93:ed:c0:cf:f0:be:d0:2a:06:ae:69:f9:01:b9:0c:5b:
         dc:22:0c:fd:31:d2:69:12:b0:1b:15:a2:00:83:02:a6:4d:45:
         43:45:8a:7b:62:b7:4d:1d:39:e6:e3:6f:5e:a9:d4:37:18:83:
         3d:85:f5:66
-----BEGIN CERTIFICATE-----
MIIFSTCCBDGgAwIBAgIRAIlnnekkBxlRhLXbEEIBkYgwDQYJKoZIhvcNAQELBQAw
gbsxCzAJBgNVBAYTAlVTMRAwDgYDVQQIDAdHZW9yZ2lhMRwwGgYDVQQHDBNDaGF0
dGFob29jaGVlIEhpbGxzMRowGAYDVQQKDBFNYW55Zm9sZCBGYXJtIExMQzETMBEG
A1UECwwKT3BlcmF0aW9uczEfMB0GA1UEAwwWTWFueSBGb2xkIEZhcm0gUm9vdCBD
QTEqMCgGCSqGSIb3DQEJARYbaG9zdG1hc3RlckBtYW55Zm9sZGZhcm0uY29tMB4X
DTE3MDUyMzE1MjA1NFoXDTIyMDUyMjE1MjA1NFowgbwxCzAJBgNVBAYTAlVTMRAw
DgYDVQQIDAdHZW9yZ2lhMRwwGgYDVQQHDBNDaGF0dGFob29jaGVlIEhpbGxzMRow
GAYDVQQKDBFNYW55Zm9sZCBGYXJtIExMQzERMA8GA1UECwwIQ3JlYW1lcnkxIjAg
BgNVBAMMGXplZS5lZGdlLm1hbnlmb2xkZmFybS5jb20xKjAoBgkqhkiG9w0BCQEW
G2hvc3RtYXN0ZXJAbWFueWZvbGRmYXJtLmNvbTCCASIwDQYJKoZIhvcNAQEBBQAD
ggEPADCCAQoCggEBAJ9IdhNzD+jC7p9Rq2WVlWQHFzmhBdjJG/K2K9ANJLpBt9ko
N9USWU9WQp2reuVi7/VBOdcDqmnxVnwJllxIDlEBDNz3Ebe1gMlCTct0EE4pBdZO
EZwH30uZe+LnUcEfFq25Tw4l4pHkjsaNqtG4Ciw3prkjbdaYzOiEHczdE02k3BeI
EUyqOaLEXJQgy4rahG0ZxtEt53czpasbRznlCeyu2pCmds7ixJP7rEFq3ly2gMBu
H/dtRqAom2d6B7G+SyjnQoq5rJqwmaE4HHYvq/Li0685QtsGDK0gZQQrZQSa2OLO
38GL4qgAjioAW7k2yfjqZK6t++OEh6hPZVKnOPUCAwEAAaOCAUMwggE/MAkGA1Ud
EwQCMAAwHQYDVR0OBBYEFBBiHcRMIm5HIEE1+0wJrrx2Xa24MIHwBgNVHSMEgegw
geWAFD0nF29e+lp2KeNIORwKo5XOSsjtoYHBpIG+MIG7MQswCQYDVQQGEwJVUzEQ
MA4GA1UECAwHR2VvcmdpYTEcMBoGA1UEBwwTQ2hhdHRhaG9vY2hlZSBIaWxsczEa
MBgGA1UECgwRTWFueWZvbGQgRmFybSBMTEMxEzARBgNVBAsMCk9wZXJhdGlvbnMx
HzAdBgNVBAMMFk1hbnkgRm9sZCBGYXJtIFJvb3QgQ0ExKjAoBgkqhkiG9w0BCQEW
G2hvc3RtYXN0ZXJAbWFueWZvbGRmYXJtLmNvbYIJAODteu6yPyZ6MBMGA1UdJQQM
MAoGCCsGAQUFBwMBMAsGA1UdDwQEAwIFoDANBgkqhkiG9w0BAQsFAAOCAQEAuzUU
maH8DznYRVxFEtZS5Axe1unG5EmdnZTmLihJAsR4B+zgzjIQSuZvFDIYeEhkdm+D
B2tDvLPbwJuLxaOP9qTMKBs190QGxs3VeeRIdmEjHJvknMkdTwKp/UvqqAbGIMu6
E7Srhk61w6eynPoK5h6zP6X5xtTsyV/7lQFtVWl8IEJne+pna2I8+u7vyRCIreDl
CL0VRT6C9vxvssFsSmo8Hvm/4E+qWlqiL3ARH3F2cXMHKrMHXBwD1nXhM5SgUFDe
yezcgdyT7cDP8L7QKgauafkBuQxb3CIM/THSaRKwGxWiAIMCpk1FQ0WKe2K3TR05
5uNvXqnUNxiDPYX1Zg==
-----END CERTIFICATE-----
