Certificate:
    Data:
        Version: 3 (0x2)
        Serial Number:
            89:67:9d:e9:24:07:19:51:84:b5:db:10:42:01:91:80
    Signature Algorithm: sha256WithRSAEncryption
        Issuer: C=US, ST=Georgia, L=Chattahoochee Hills, O=Manyfold Farm LLC, OU=Operations, CN=Many Fold Farm Root CA/emailAddress=hostmaster@manyfoldfarm.com
        Validity
            Not Before: Oct 20 14:53:25 2016 GMT
            Not After : Oct 19 14:53:25 2021 GMT
        Subject: C=US, ST=Georgia, L=Chattahoochee Hills, O=Manyfold Farm LLC, OU=Creamery, CN=docker.farm.manyfoldfarm.com/emailAddress=hostmaster@manyfoldfarm.com
        Subject Public Key Info:
            Public Key Algorithm: rsaEncryption
                Public-Key: (2048 bit)
                Modulus:
                    00:ac:a1:de:ec:2a:af:b2:b8:6c:e7:10:86:ba:5b:
                    f7:5e:96:91:e9:37:b2:57:a4:39:bd:d6:c0:52:b7:
                    1e:9d:63:60:16:d6:97:57:5b:20:e4:94:62:e7:3d:
                    9c:4f:f2:44:61:a8:de:4b:f8:21:0b:9c:80:9c:91:
                    df:f6:8a:b6:e9:6d:db:25:32:1d:de:33:e2:89:02:
                    70:4c:e4:42:4c:35:3a:74:dc:85:c0:b2:1f:f4:44:
                    cb:63:51:cb:96:bd:0f:1d:6b:5f:ea:0f:af:16:43:
                    10:d1:95:7f:c6:03:ac:09:7f:cf:9f:20:10:bf:3f:
                    a1:4c:53:71:fc:4c:5d:91:e5:90:c5:5a:8c:88:a2:
                    9d:ca:e2:db:1f:b2:42:d7:e1:55:07:38:cf:47:17:
                    9b:2c:2c:97:8b:1d:b7:f4:b3:bc:67:5a:eb:dc:ee:
                    ef:62:33:bd:d3:fb:15:fe:f3:46:b4:d7:e5:b6:43:
                    62:b7:71:bd:da:a4:ba:c5:78:35:85:ef:78:13:00:
                    02:97:d3:b9:4c:8b:15:db:85:be:34:a4:d7:b9:f7:
                    bc:95:09:94:5e:35:38:90:9c:f9:4b:d6:33:e1:11:
                    d5:42:15:c9:d0:ea:81:48:7b:92:5e:98:7c:01:eb:
                    db:09:39:5c:6d:13:b0:06:74:86:b9:96:d2:9f:7f:
                    7c:b3
                Exponent: 65537 (0x10001)
        X509v3 extensions:
            X509v3 Basic Constraints: 
                CA:FALSE
            X509v3 Subject Key Identifier: 
                36:C4:3C:73:6E:D0:6E:7A:2A:C6:2F:95:D6:26:4A:F7:1B:95:F2:D1
            X509v3 Authority Key Identifier: 
                keyid:3D:27:17:6F:5E:FA:5A:76:29:E3:48:39:1C:0A:A3:95:CE:4A:C8:ED
                DirName:/C=US/ST=Georgia/L=Chattahoochee Hills/O=Manyfold Farm LLC/OU=Operations/CN=Many Fold Farm Root CA/emailAddress=hostmaster@manyfoldfarm.com
                serial:E0:ED:7A:EE:B2:3F:26:7A

            X509v3 Extended Key Usage: 
                TLS Web Server Authentication
            X509v3 Key Usage: 
                Digital Signature, Key Encipherment
            X509v3 Subject Alternative Name: 
                DNS:*.docker.farm.manyfoldfarm.com
    Signature Algorithm: sha256WithRSAEncryption
         4c:fd:a7:bb:5c:04:fe:54:7a:be:c2:6c:90:35:7b:7f:4d:cf:
         af:9a:ee:f1:36:28:7b:ed:6e:0c:eb:ad:fa:e4:ef:71:a3:64:
         a1:d2:01:b6:54:a8:04:d5:4c:ae:ef:8c:bd:ce:03:cc:e0:be:
         1f:4f:ee:0f:ed:6d:3f:47:37:3e:85:76:6d:1c:e7:6f:b7:57:
         60:77:cd:93:f0:21:02:07:e4:2a:37:0e:d4:c0:ef:af:04:37:
         39:01:87:06:b5:06:7b:f9:e1:a2:1d:b8:22:f7:ef:84:5f:0c:
         ce:4f:c7:78:f7:8c:ef:76:2a:1b:39:fa:76:a3:0b:76:ad:e1:
         47:70:ea:0a:f9:17:ac:47:a7:e5:af:62:e0:10:36:f3:53:f8:
         31:78:61:65:d8:66:20:4f:c7:9f:01:d8:d7:16:14:b4:9e:97:
         6d:ea:e6:4d:0e:18:5e:e9:66:86:32:06:34:a7:87:fa:4e:0c:
         84:54:cc:a1:41:e6:b6:d0:ad:9f:52:08:e3:17:9a:fa:e9:7a:
         e3:b0:1e:0f:d3:f3:78:c5:5d:ed:f4:8f:fc:47:57:97:f9:e6:
         f3:b8:43:a1:11:d8:e8:16:c4:ee:fa:b9:f5:0d:e3:8e:c9:36:
         93:ae:ee:7c:bf:6f:5e:91:c4:f6:ad:f3:be:57:6f:fd:28:1e:
         cc:dc:d8:66
-----BEGIN CERTIFICATE-----
MIIFdzCCBF+gAwIBAgIRAIlnnekkBxlRhLXbEEIBkYAwDQYJKoZIhvcNAQELBQAw
gbsxCzAJBgNVBAYTAlVTMRAwDgYDVQQIDAdHZW9yZ2lhMRwwGgYDVQQHDBNDaGF0
dGFob29jaGVlIEhpbGxzMRowGAYDVQQKDBFNYW55Zm9sZCBGYXJtIExMQzETMBEG
A1UECwwKT3BlcmF0aW9uczEfMB0GA1UEAwwWTWFueSBGb2xkIEZhcm0gUm9vdCBD
QTEqMCgGCSqGSIb3DQEJARYbaG9zdG1hc3RlckBtYW55Zm9sZGZhcm0uY29tMB4X
DTE2MTAyMDE0NTMyNVoXDTIxMTAxOTE0NTMyNVowgb8xCzAJBgNVBAYTAlVTMRAw
DgYDVQQIDAdHZW9yZ2lhMRwwGgYDVQQHDBNDaGF0dGFob29jaGVlIEhpbGxzMRow
GAYDVQQKDBFNYW55Zm9sZCBGYXJtIExMQzERMA8GA1UECwwIQ3JlYW1lcnkxJTAj
BgNVBAMMHGRvY2tlci5mYXJtLm1hbnlmb2xkZmFybS5jb20xKjAoBgkqhkiG9w0B
CQEWG2hvc3RtYXN0ZXJAbWFueWZvbGRmYXJtLmNvbTCCASIwDQYJKoZIhvcNAQEB
BQADggEPADCCAQoCggEBAKyh3uwqr7K4bOcQhrpb916Wkek3slekOb3WwFK3Hp1j
YBbWl1dbIOSUYuc9nE/yRGGo3kv4IQucgJyR3/aKtult2yUyHd4z4okCcEzkQkw1
OnTchcCyH/REy2NRy5a9Dx1rX+oPrxZDENGVf8YDrAl/z58gEL8/oUxTcfxMXZHl
kMVajIiincri2x+yQtfhVQc4z0cXmywsl4sdt/SzvGda69zu72IzvdP7Ff7zRrTX
5bZDYrdxvdqkusV4NYXveBMAApfTuUyLFduFvjSk17n3vJUJlF41OJCc+UvWM+ER
1UIVydDqgUh7kl6YfAHr2wk5XG0TsAZ0hrmW0p9/fLMCAwEAAaOCAW4wggFqMAkG
A1UdEwQCMAAwHQYDVR0OBBYEFDbEPHNu0G56KsYvldYmSvcblfLRMIHwBgNVHSME
gegwgeWAFD0nF29e+lp2KeNIORwKo5XOSsjtoYHBpIG+MIG7MQswCQYDVQQGEwJV
UzEQMA4GA1UECAwHR2VvcmdpYTEcMBoGA1UEBwwTQ2hhdHRhaG9vY2hlZSBIaWxs
czEaMBgGA1UECgwRTWFueWZvbGQgRmFybSBMTEMxEzARBgNVBAsMCk9wZXJhdGlv
bnMxHzAdBgNVBAMMFk1hbnkgRm9sZCBGYXJtIFJvb3QgQ0ExKjAoBgkqhkiG9w0B
CQEWG2hvc3RtYXN0ZXJAbWFueWZvbGRmYXJtLmNvbYIJAODteu6yPyZ6MBMGA1Ud
JQQMMAoGCCsGAQUFBwMBMAsGA1UdDwQEAwIFoDApBgNVHREEIjAggh4qLmRvY2tl
ci5mYXJtLm1hbnlmb2xkZmFybS5jb20wDQYJKoZIhvcNAQELBQADggEBAEz9p7tc
BP5Uer7CbJA1e39Nz6+a7vE2KHvtbgzrrfrk73GjZKHSAbZUqATVTK7vjL3OA8zg
vh9P7g/tbT9HNz6Fdm0c52+3V2B3zZPwIQIH5Co3DtTA768ENzkBhwa1Bnv54aId
uCL374RfDM5Px3j3jO92Khs5+najC3at4Udw6gr5F6xHp+WvYuAQNvNT+DF4YWXY
ZiBPx58B2NcWFLSel23q5k0OGF7pZoYyBjSnh/pODIRUzKFB5rbQrZ9SCOMXmvrp
euOwHg/T83jFXe30j/xHV5f55vO4Q6ER2OgWxO76ufUN447JNpOu7ny/b16RxPat
875Xb/0oHszc2GY=
-----END CERTIFICATE-----
