Certificate:
    Data:
        Version: 3 (0x2)
        Serial Number: 22 (0x16)
    Signature Algorithm: sha256WithRSAEncryption
        Issuer: C=US, ST=Georgia, L=Chattahoochee Hills, O=Manyfold Farm LLC, OU=Operations, CN=Many Fold Farm Root CA/emailAddress=hostmaster@manyfoldfarm.com
        Validity
            Not Before: Jun  8 21:31:50 2016 GMT
            Not After : Jun  7 21:31:50 2021 GMT
        Subject: C=US, ST=Georgia, L=Chattahoochee Hills, O=Manyfold Farm LLC, OU=Creamery, CN=updates.manyfoldfarm.com/emailAddress=hostmaster@manyfoldfarm.com
        Subject Public Key Info:
            Public Key Algorithm: rsaEncryption
                Public-Key: (2048 bit)
                Modulus:
                    00:e2:a6:22:5f:46:12:24:13:34:26:84:d8:81:6c:
                    d4:72:67:ef:7e:1a:dd:3a:6c:3b:9c:39:e8:28:df:
                    9f:92:3d:20:2c:75:a9:2b:59:e7:f7:b1:8e:63:1a:
                    3e:4e:8a:a3:84:4b:d6:83:69:9f:bc:3c:7b:1a:3c:
                    fc:c9:5a:65:8d:bf:2b:d2:ac:c5:44:71:da:61:32:
                    35:3a:91:1e:c0:b1:44:1e:b6:0c:a3:cd:a1:fe:2d:
                    d6:00:63:55:86:74:23:6e:a6:27:9d:30:32:6d:47:
                    70:a6:a0:5c:0f:bc:1b:13:fa:ef:94:e3:f6:0f:87:
                    26:35:de:92:ce:d2:4c:35:29:a8:71:fb:43:b8:8f:
                    2c:8d:53:64:b0:35:2e:b9:04:3d:fd:9d:bb:61:c3:
                    04:f4:eb:1e:eb:97:31:1b:4b:67:37:7a:6f:ea:5b:
                    4c:f1:46:b2:fb:77:cf:e6:03:97:2c:60:21:4b:38:
                    18:e3:b4:2c:6c:ca:46:85:fd:c9:9b:fe:83:65:9d:
                    9a:e7:67:c5:2b:27:7b:0d:1b:23:1f:41:83:c7:9f:
                    f9:89:21:4e:53:73:12:8c:47:11:be:e1:50:69:69:
                    92:a4:c9:f8:e2:01:1e:bc:f2:d1:8b:bb:83:53:81:
                    5f:6b:b8:53:fc:21:16:66:00:c7:01:f4:11:e8:40:
                    cd:25
                Exponent: 65537 (0x10001)
        X509v3 extensions:
            X509v3 Basic Constraints: 
                CA:FALSE
            X509v3 Subject Key Identifier: 
                56:C8:A5:19:5E:72:27:05:06:B0:0D:85:B4:2D:DC:A7:D4:47:9F:51
            X509v3 Authority Key Identifier: 
                keyid:3D:27:17:6F:5E:FA:5A:76:29:E3:48:39:1C:0A:A3:95:CE:4A:C8:ED
                DirName:/C=US/ST=Georgia/L=Chattahoochee Hills/O=Manyfold Farm LLC/OU=Operations/CN=Many Fold Farm Root CA/emailAddress=hostmaster@manyfoldfarm.com
                serial:E0:ED:7A:EE:B2:3F:26:7A

            X509v3 Extended Key Usage: 
                TLS Web Server Authentication
            X509v3 Key Usage: 
                Digital Signature, Key Encipherment
    Signature Algorithm: sha256WithRSAEncryption
         94:18:bd:de:71:fc:3b:84:7a:5b:9f:76:2d:25:e3:89:3b:3c:
         2e:0e:4a:db:3f:44:8a:e0:1d:ae:1b:9f:c2:49:19:f7:51:e1:
         45:61:ab:a6:65:2b:d6:f9:eb:57:b3:76:7f:f8:7c:ea:50:28:
         48:ca:cc:ba:10:d0:df:25:10:75:80:ef:f7:a9:4e:ce:4c:08:
         41:2f:a0:d0:b7:06:6d:bb:38:b4:3c:bd:2b:0d:b4:e1:19:ea:
         37:b2:6c:57:25:05:3b:62:25:bb:3a:c0:33:cb:64:f4:f5:8e:
         d9:79:7d:b2:58:ca:fd:49:0e:a7:3d:d4:d8:01:d5:db:3e:67:
         43:51:3a:33:72:7e:e9:9e:2f:d3:ae:49:49:66:8c:6d:30:bc:
         f7:e9:75:44:15:a0:ed:bf:f2:2a:c2:66:21:76:fd:98:9d:f4:
         dd:6d:4b:f9:ef:c6:4d:78:24:0f:c9:b9:61:8a:50:e7:7a:fc:
         b9:9e:e1:9e:63:3f:8d:d4:68:59:be:15:3d:a8:33:3d:04:63:
         94:43:b3:83:36:73:d3:91:94:f6:b9:7e:e1:46:57:d9:be:a6:
         d9:33:39:c6:89:3e:97:cf:53:2c:8c:f1:63:71:99:cd:dd:5b:
         f4:df:c1:28:80:04:6d:d9:4d:16:f2:c1:99:af:64:fe:29:e6:
         3d:0a:f8:dd
-----BEGIN CERTIFICATE-----
MIIFODCCBCCgAwIBAgIBFjANBgkqhkiG9w0BAQsFADCBuzELMAkGA1UEBhMCVVMx
EDAOBgNVBAgMB0dlb3JnaWExHDAaBgNVBAcME0NoYXR0YWhvb2NoZWUgSGlsbHMx
GjAYBgNVBAoMEU1hbnlmb2xkIEZhcm0gTExDMRMwEQYDVQQLDApPcGVyYXRpb25z
MR8wHQYDVQQDDBZNYW55IEZvbGQgRmFybSBSb290IENBMSowKAYJKoZIhvcNAQkB
Fhtob3N0bWFzdGVyQG1hbnlmb2xkZmFybS5jb20wHhcNMTYwNjA4MjEzMTUwWhcN
MjEwNjA3MjEzMTUwWjCBuzELMAkGA1UEBhMCVVMxEDAOBgNVBAgMB0dlb3JnaWEx
HDAaBgNVBAcME0NoYXR0YWhvb2NoZWUgSGlsbHMxGjAYBgNVBAoMEU1hbnlmb2xk
IEZhcm0gTExDMREwDwYDVQQLDAhDcmVhbWVyeTEhMB8GA1UEAwwYdXBkYXRlcy5t
YW55Zm9sZGZhcm0uY29tMSowKAYJKoZIhvcNAQkBFhtob3N0bWFzdGVyQG1hbnlm
b2xkZmFybS5jb20wggEiMA0GCSqGSIb3DQEBAQUAA4IBDwAwggEKAoIBAQDipiJf
RhIkEzQmhNiBbNRyZ+9+Gt06bDucOego35+SPSAsdakrWef3sY5jGj5OiqOES9aD
aZ+8PHsaPPzJWmWNvyvSrMVEcdphMjU6kR7AsUQetgyjzaH+LdYAY1WGdCNupied
MDJtR3CmoFwPvBsT+u+U4/YPhyY13pLO0kw1Kahx+0O4jyyNU2SwNS65BD39nbth
wwT06x7rlzEbS2c3em/qW0zxRrL7d8/mA5csYCFLOBjjtCxsykaF/cmb/oNlnZrn
Z8UrJ3sNGyMfQYPHn/mJIU5TcxKMRxG+4VBpaZKkyfjiAR688tGLu4NTgV9ruFP8
IRZmAMcB9BHoQM0lAgMBAAGjggFDMIIBPzAJBgNVHRMEAjAAMB0GA1UdDgQWBBRW
yKUZXnInBQawDYW0Ldyn1EefUTCB8AYDVR0jBIHoMIHlgBQ9JxdvXvpadinjSDkc
CqOVzkrI7aGBwaSBvjCBuzELMAkGA1UEBhMCVVMxEDAOBgNVBAgMB0dlb3JnaWEx
HDAaBgNVBAcME0NoYXR0YWhvb2NoZWUgSGlsbHMxGjAYBgNVBAoMEU1hbnlmb2xk
IEZhcm0gTExDMRMwEQYDVQQLDApPcGVyYXRpb25zMR8wHQYDVQQDDBZNYW55IEZv
bGQgRmFybSBSb290IENBMSowKAYJKoZIhvcNAQkBFhtob3N0bWFzdGVyQG1hbnlm
b2xkZmFybS5jb22CCQDg7Xrusj8mejATBgNVHSUEDDAKBggrBgEFBQcDATALBgNV
HQ8EBAMCBaAwDQYJKoZIhvcNAQELBQADggEBAJQYvd5x/DuEelufdi0l44k7PC4O
Sts/RIrgHa4bn8JJGfdR4UVhq6ZlK9b561ezdn/4fOpQKEjKzLoQ0N8lEHWA7/ep
Ts5MCEEvoNC3Bm27OLQ8vSsNtOEZ6jeybFclBTtiJbs6wDPLZPT1jtl5fbJYyv1J
Dqc91NgB1ds+Z0NROjNyfumeL9OuSUlmjG0wvPfpdUQVoO2/8irCZiF2/Zid9N1t
S/nvxk14JA/JuWGKUOd6/Lme4Z5jP43UaFm+FT2oMz0EY5RDs4M2c9ORlPa5fuFG
V9m+ptkzOcaJPpfPUyyM8WNxmc3dW/TfwSiABG3ZTRbywZmvZP4p5j0K+N0=
-----END CERTIFICATE-----
